target datalayout = "e-m:e-p270:32:32-p271:32:32-p272:64:64-i64:64-i128:128-f80:128-n8:16:32:64-S128"
target triple = "x86_64-pc-linux-gnu"

%"class.euf::solve_eqs" = type { %class.dependent_expr_simplifier, %"struct.euf::solve_eqs::stats", %"struct.euf::solve_eqs::config", %class.th_rewriter, %class.scoped_ptr_vector, %class.svector, %class.ptr_vector.1, %class.svector, %class.svector, %class.vector.3, %class.scoped_ptr, %class.obj_mark, %class.ptr_vector.4, %class.obj_mark, %class.obj_map }
%class.dependent_expr_simplifier = type { ptr, ptr, ptr, ptr }
%"struct.euf::solve_eqs::stats" = type { i32, i32 }
%"struct.euf::solve_eqs::config" = type { i8, i32 }
%class.th_rewriter = type { ptr, %class.params_ref }
%class.params_ref = type { ptr }
%class.scoped_ptr_vector = type { %class.ptr_vector }
%class.ptr_vector = type { %class.vector }
%class.vector = type { ptr }
%class.ptr_vector.1 = type { %class.vector.2 }
%class.vector.2 = type { ptr }
%class.svector = type { %class.vector.0 }
%class.vector.0 = type { ptr }
%class.vector.3 = type { ptr }
%class.scoped_ptr = type { ptr }
%class.ptr_vector.4 = type { %class.vector.5 }
%class.vector.5 = type { ptr }
%class.obj_mark = type { [8 x i8], %class.bit_vector }
%class.bit_vector = type { i32, i32, ptr }
%class.obj_map = type { %class.core_hashtable }
%class.core_hashtable = type <{ ptr, i32, i32, i32, [4 x i8] }>
%struct.tactic_params = type { ptr, %class.params_ref }

@.str.2 = private unnamed_addr constant [19 x i8] c"solve_eqs_max_occs\00", align 1
@.str.3 = private unnamed_addr constant [14 x i8] c"context_solve\00", align 1
@.str.22 = private unnamed_addr constant [7 x i8] c"tactic\00", align 1
@.str.23 = private unnamed_addr constant [19 x i8] c"solve_eqs.max_occs\00", align 1
@.str.24 = private unnamed_addr constant [24 x i8] c"solve_eqs.context_solve\00", align 1

; Function Attrs: mustprogress nounwind uwtable
define linkonce_odr hidden noundef i32 @_ZNK6vectorIPN3euf10extract_eqELb0EjE4sizeEv(ptr noundef nonnull align 8 dereferenceable(8) %0) #6 comdat align 2 {
  %2 = alloca i32, align 4
  %3 = alloca ptr, align 8
  store ptr %0, ptr %3, align 8, !tbaa !544
  %4 = load ptr, ptr %3, align 8
  %5 = getelementptr inbounds nuw %class.vector, ptr %4, i32 0, i32 0
  %6 = load ptr, ptr %5, align 8, !tbaa !546
  %7 = icmp eq ptr %6, null
  br i1 %7, label %8, label %9

8:                                                ; preds = %1
  store i32 0, ptr %2, align 4
  br label %14

9:                                                ; preds = %1
  %10 = getelementptr inbounds nuw %class.vector, ptr %4, i32 0, i32 0
  %11 = load ptr, ptr %10, align 8, !tbaa !546
  %12 = getelementptr inbounds i32, ptr %11, i64 -1
  %13 = load i32, ptr %12, align 4, !tbaa !19
  store i32 %13, ptr %2, align 4
  br label %14

14:                                               ; preds = %9, %8
  %15 = load i32, ptr %2, align 4
  ret i32 %15
}

; Function Attrs: mustprogress uwtable
define linkonce_odr hidden noundef ptr @_ZNK6vectorIPN3euf10extract_eqELb0EjE3endEv(ptr noundef nonnull align 8 dereferenceable(8) %0) #4 comdat align 2 {
  %2 = alloca ptr, align 8
  store ptr %0, ptr %2, align 8, !tbaa !544
  %3 = load ptr, ptr %2, align 8
  %4 = getelementptr inbounds nuw %class.vector, ptr %3, i32 0, i32 0
  %5 = load ptr, ptr %4, align 8, !tbaa !546
  %6 = call noundef i32 @_ZNK6vectorIPN3euf10extract_eqELb0EjE4sizeEv(ptr noundef nonnull align 8 dereferenceable(8) %3)
  %7 = zext i32 %6 to i64
  %8 = getelementptr inbounds nuw ptr, ptr %5, i64 %7
  ret ptr %8
}

; Function Attrs: mustprogress nounwind uwtable
define linkonce_odr hidden noundef ptr @_ZNK6vectorIPN3euf10extract_eqELb0EjE5beginEv(ptr noundef nonnull align 8 dereferenceable(8) %0) #6 comdat align 2 {
  %2 = alloca ptr, align 8
  store ptr %0, ptr %2, align 8, !tbaa !544
  %3 = load ptr, ptr %2, align 8
  %4 = getelementptr inbounds nuw %class.vector, ptr %3, i32 0, i32 0
  %5 = load ptr, ptr %4, align 8, !tbaa !546
  ret ptr %5
}

; Function Attrs: inlinehint mustprogress nounwind uwtable
define linkonce_odr hidden void @_ZN13tactic_paramsD2Ev(ptr noundef nonnull align 8 dereferenceable(16) %0) unnamed_addr #7 comdat align 2 {
  %2 = alloca ptr, align 8
  store ptr %0, ptr %2, align 8, !tbaa !278
  %3 = load ptr, ptr %2, align 8
  %4 = getelementptr inbounds nuw %struct.tactic_params, ptr %3, i32 0, i32 1
  call void @_ZN10params_refD1Ev(ptr noundef nonnull align 8 dereferenceable(8) %4) #3
  ret void
}

; Function Attrs: mustprogress uwtable
define linkonce_odr hidden noundef ptr @_ZNK17scoped_ptr_vectorIN3euf10extract_eqEE3endEv(ptr noundef nonnull align 8 dereferenceable(8) %0) #4 comdat align 2 {
  %2 = alloca ptr, align 8
  store ptr %0, ptr %2, align 8, !tbaa !10
  %3 = load ptr, ptr %2, align 8
  %4 = getelementptr inbounds nuw %class.scoped_ptr_vector, ptr %3, i32 0, i32 0
  %5 = call noundef ptr @_ZNK6vectorIPN3euf10extract_eqELb0EjE3endEv(ptr noundef nonnull align 8 dereferenceable(8) %4)
  ret ptr %5
}

; Function Attrs: mustprogress uwtable
define linkonce_odr hidden noundef ptr @_ZNK17scoped_ptr_vectorIN3euf10extract_eqEE5beginEv(ptr noundef nonnull align 8 dereferenceable(8) %0) #4 comdat align 2 {
  %2 = alloca ptr, align 8
  store ptr %0, ptr %2, align 8, !tbaa !10
  %3 = load ptr, ptr %2, align 8
  %4 = getelementptr inbounds nuw %class.scoped_ptr_vector, ptr %3, i32 0, i32 0
  %5 = call noundef ptr @_ZNK6vectorIPN3euf10extract_eqELb0EjE5beginEv(ptr noundef nonnull align 8 dereferenceable(8) %4)
  ret ptr %5
}

; Function Attrs: mustprogress uwtable
define linkonce_odr hidden noundef zeroext i1 @_ZNK13tactic_params23solve_eqs_context_solveEv(ptr noundef nonnull align 8 dereferenceable(16) %0) #4 comdat align 2 {
  %2 = alloca ptr, align 8
  store ptr %0, ptr %2, align 8, !tbaa !278
  %3 = load ptr, ptr %2, align 8
  %4 = getelementptr inbounds nuw %struct.tactic_params, ptr %3, i32 0, i32 0
  %5 = load ptr, ptr %4, align 8, !tbaa !280
  %6 = getelementptr inbounds nuw %struct.tactic_params, ptr %3, i32 0, i32 1
  %7 = call noundef zeroext i1 @_ZNK10params_ref8get_boolEPKcRKS_b(ptr noundef nonnull align 8 dereferenceable(8) %5, ptr noundef @.str.24, ptr noundef nonnull align 8 dereferenceable(8) %6, i1 noundef zeroext true)
  ret i1 %7
}

; Function Attrs: mustprogress uwtable
define linkonce_odr hidden noundef i32 @_ZNK13tactic_params18solve_eqs_max_occsEv(ptr noundef nonnull align 8 dereferenceable(16) %0) #4 comdat align 2 {
  %2 = alloca ptr, align 8
  store ptr %0, ptr %2, align 8, !tbaa !278
  %3 = load ptr, ptr %2, align 8
  %4 = getelementptr inbounds nuw %struct.tactic_params, ptr %3, i32 0, i32 0
  %5 = load ptr, ptr %4, align 8, !tbaa !280
  %6 = getelementptr inbounds nuw %struct.tactic_params, ptr %3, i32 0, i32 1
  %7 = call noundef i32 @_ZNK10params_ref8get_uintEPKcRKS_j(ptr noundef nonnull align 8 dereferenceable(8) %5, ptr noundef @.str.23, ptr noundef nonnull align 8 dereferenceable(8) %6, i32 noundef -1)
  ret i32 %7
}

; Function Attrs: mustprogress uwtable
define linkonce_odr hidden void @_ZN13tactic_paramsC2ERK10params_ref(ptr noundef nonnull align 8 dereferenceable(16) %0, ptr noundef nonnull align 8 dereferenceable(8) %1) unnamed_addr #4 comdat align 2 {
  %3 = alloca ptr, align 8
  %4 = alloca ptr, align 8
  store ptr %0, ptr %3, align 8, !tbaa !278
  store ptr %1, ptr %4, align 8, !tbaa !271
  %5 = load ptr, ptr %3, align 8
  %6 = getelementptr inbounds nuw %struct.tactic_params, ptr %5, i32 0, i32 0
  %7 = load ptr, ptr %4, align 8, !tbaa !271
  store ptr %7, ptr %6, align 8, !tbaa !271
  %8 = getelementptr inbounds nuw %struct.tactic_params, ptr %5, i32 0, i32 1
  call void @_ZN7gparams10get_moduleEPKc(ptr dead_on_unwind writable sret(%class.params_ref) align 8 %8, ptr noundef @.str.22)
  ret void
}

; Function Attrs: mustprogress uwtable
define hidden void @_ZN3euf9solve_eqs11updt_paramsERK10params_ref(ptr noundef nonnull align 8 dereferenceable(200) %0, ptr noundef nonnull align 8 dereferenceable(8) %1) unnamed_addr #4 align 2 personality ptr @__gxx_personality_v0 {
  %3 = alloca ptr, align 8
  %4 = alloca ptr, align 8
  %5 = alloca %struct.tactic_params, align 8
  %6 = alloca ptr, align 8
  %7 = alloca i32, align 4
  %8 = alloca ptr, align 8
  %9 = alloca ptr, align 8
  %10 = alloca ptr, align 8
  %11 = alloca ptr, align 8
  store ptr %0, ptr %3, align 8, !tbaa !3
  store ptr %1, ptr %4, align 8, !tbaa !271
  %12 = load ptr, ptr %3, align 8
  call void @llvm.lifetime.start.p0(i64 16, ptr %5) #3
  %13 = load ptr, ptr %4, align 8, !tbaa !271
  call void @_ZN13tactic_paramsC2ERK10params_ref(ptr noundef nonnull align 8 dereferenceable(16) %5, ptr noundef nonnull align 8 dereferenceable(8) %13)
  %14 = load ptr, ptr %4, align 8, !tbaa !271
  %15 = invoke noundef i32 @_ZNK13tactic_params18solve_eqs_max_occsEv(ptr noundef nonnull align 8 dereferenceable(16) %5)
          to label %16 unwind label %41

16:                                               ; preds = %2
  %17 = invoke noundef i32 @_ZNK10params_ref8get_uintEPKcj(ptr noundef nonnull align 8 dereferenceable(8) %14, ptr noundef @.str.2, i32 noundef %15)
          to label %18 unwind label %41

18:                                               ; preds = %16
  %19 = getelementptr inbounds nuw %"class.euf::solve_eqs", ptr %12, i32 0, i32 2
  %20 = getelementptr inbounds nuw %"struct.euf::solve_eqs::config", ptr %19, i32 0, i32 1
  store i32 %17, ptr %20, align 4, !tbaa !206
  %21 = load ptr, ptr %4, align 8, !tbaa !271
  %22 = invoke noundef zeroext i1 @_ZNK13tactic_params23solve_eqs_context_solveEv(ptr noundef nonnull align 8 dereferenceable(16) %5)
          to label %23 unwind label %41

23:                                               ; preds = %18
  %24 = invoke noundef zeroext i1 @_ZNK10params_ref8get_boolEPKcb(ptr noundef nonnull align 8 dereferenceable(8) %21, ptr noundef @.str.3, i1 noundef zeroext %22)
          to label %25 unwind label %41

25:                                               ; preds = %23
  %26 = getelementptr inbounds nuw %"class.euf::solve_eqs", ptr %12, i32 0, i32 2
  %27 = getelementptr inbounds nuw %"struct.euf::solve_eqs::config", ptr %26, i32 0, i32 0
  %28 = zext i1 %24 to i8
  store i8 %28, ptr %27, align 8, !tbaa !191
  call void @llvm.lifetime.start.p0(i64 8, ptr %8) #3
  %29 = getelementptr inbounds nuw %"class.euf::solve_eqs", ptr %12, i32 0, i32 4
  store ptr %29, ptr %8, align 8, !tbaa !10
  call void @llvm.lifetime.start.p0(i64 8, ptr %9) #3
  %30 = load ptr, ptr %8, align 8, !tbaa !10
  %31 = invoke noundef ptr @_ZNK17scoped_ptr_vectorIN3euf10extract_eqEE5beginEv(ptr noundef nonnull align 8 dereferenceable(8) %30)
          to label %32 unwind label %45

32:                                               ; preds = %25
  store ptr %31, ptr %9, align 8, !tbaa !12
  call void @llvm.lifetime.start.p0(i64 8, ptr %10) #3
  %33 = load ptr, ptr %8, align 8, !tbaa !10
  %34 = invoke noundef ptr @_ZNK17scoped_ptr_vectorIN3euf10extract_eqEE3endEv(ptr noundef nonnull align 8 dereferenceable(8) %33)
          to label %35 unwind label %49

35:                                               ; preds = %32
  store ptr %34, ptr %10, align 8, !tbaa !12
  br label %36

36:                                               ; preds = %62, %35
  %37 = load ptr, ptr %9, align 8, !tbaa !12
  %38 = load ptr, ptr %10, align 8, !tbaa !12
  %39 = icmp ne ptr %37, %38
  br i1 %39, label %53, label %40

40:                                               ; preds = %36
  call void @llvm.lifetime.end.p0(i64 8, ptr %10) #3
  call void @llvm.lifetime.end.p0(i64 8, ptr %9) #3
  call void @llvm.lifetime.end.p0(i64 8, ptr %8) #3
  br label %71

41:                                               ; preds = %71, %23, %18, %16, %2
  %42 = landingpad { ptr, i32 }
          cleanup
  %43 = extractvalue { ptr, i32 } %42, 0
  store ptr %43, ptr %6, align 8
  %44 = extractvalue { ptr, i32 } %42, 1
  store i32 %44, ptr %7, align 4
  br label %75

45:                                               ; preds = %25
  %46 = landingpad { ptr, i32 }
          cleanup
  %47 = extractvalue { ptr, i32 } %46, 0
  store ptr %47, ptr %6, align 8
  %48 = extractvalue { ptr, i32 } %46, 1
  store i32 %48, ptr %7, align 4
  br label %70

49:                                               ; preds = %32
  %50 = landingpad { ptr, i32 }
          cleanup
  %51 = extractvalue { ptr, i32 } %50, 0
  store ptr %51, ptr %6, align 8
  %52 = extractvalue { ptr, i32 } %50, 1
  store i32 %52, ptr %7, align 4
  br label %69

53:                                               ; preds = %36
  call void @llvm.lifetime.start.p0(i64 8, ptr %11) #3
  %54 = load ptr, ptr %9, align 8, !tbaa !12
  %55 = load ptr, ptr %54, align 8, !tbaa !15
  store ptr %55, ptr %11, align 8, !tbaa !15
  %56 = load ptr, ptr %11, align 8, !tbaa !15
  %57 = load ptr, ptr %4, align 8, !tbaa !271
  %58 = load ptr, ptr %56, align 8, !tbaa !26
  %59 = getelementptr inbounds ptr, ptr %58, i64 4
  %60 = load ptr, ptr %59, align 8
  invoke void %60(ptr noundef nonnull align 8 dereferenceable(8) %56, ptr noundef nonnull align 8 dereferenceable(8) %57)
          to label %61 unwind label %65

61:                                               ; preds = %53
  call void @llvm.lifetime.end.p0(i64 8, ptr %11) #3
  br label %62

62:                                               ; preds = %61
  %63 = load ptr, ptr %9, align 8, !tbaa !12
  %64 = getelementptr inbounds nuw ptr, ptr %63, i32 1
  store ptr %64, ptr %9, align 8, !tbaa !12
  br label %36

65:                                               ; preds = %53
  %66 = landingpad { ptr, i32 }
          cleanup
  %67 = extractvalue { ptr, i32 } %66, 0
  store ptr %67, ptr %6, align 8
  %68 = extractvalue { ptr, i32 } %66, 1
  store i32 %68, ptr %7, align 4
  call void @llvm.lifetime.end.p0(i64 8, ptr %11) #3
  br label %69

69:                                               ; preds = %65, %49
  call void @llvm.lifetime.end.p0(i64 8, ptr %10) #3
  br label %70

70:                                               ; preds = %69, %45
  call void @llvm.lifetime.end.p0(i64 8, ptr %9) #3
  call void @llvm.lifetime.end.p0(i64 8, ptr %8) #3
  br label %75

71:                                               ; preds = %40
  %72 = getelementptr inbounds nuw %"class.euf::solve_eqs", ptr %12, i32 0, i32 3
  %73 = load ptr, ptr %4, align 8, !tbaa !271
  invoke void @_ZN11th_rewriter11updt_paramsERK10params_ref(ptr noundef nonnull align 8 dereferenceable(16) %72, ptr noundef nonnull align 8 dereferenceable(8) %73)
          to label %74 unwind label %41

74:                                               ; preds = %71
  call void @_ZN13tactic_paramsD2Ev(ptr noundef nonnull align 8 dereferenceable(16) %5) #3
  call void @llvm.lifetime.end.p0(i64 16, ptr %5) #3
  ret void

75:                                               ; preds = %70, %41
  call void @_ZN13tactic_paramsD2Ev(ptr noundef nonnull align 8 dereferenceable(16) %5) #3
  call void @llvm.lifetime.end.p0(i64 16, ptr %5) #3
  br label %76

76:                                               ; preds = %75
  %77 = load ptr, ptr %6, align 8
  %78 = load i32, ptr %7, align 4
  %79 = insertvalue { ptr, i32 } poison, ptr %77, 0
  %80 = insertvalue { ptr, i32 } %79, i32 %78, 1
  resume { ptr, i32 } %80
}