; Function Attrs: mustprogress uwtable
define hidden void @_ZN3euf9solve_eqs11updt_paramsERK10params_ref(ptr noundef nonnull align 8 dereferenceable(200) %0, ptr noundef nonnull align 8 dereferenceable(8) %1) unnamed_addr #3 align 2 personality ptr @__gxx_personality_v0 {
  %3 = alloca %struct.tactic_params, align 8
  call void @llvm.lifetime.start.p0(i64 16, ptr nonnull %3) #25
  store ptr %1, ptr %3, align 8, !tbaa !275
  %4 = getelementptr inbounds nuw i8, ptr %3, i64 8
  call void @_ZN7gparams10get_moduleEPKc(ptr dead_on_unwind nonnull writable sret(%class.params_ref) align 8 %4, ptr noundef nonnull @.str.22)
  %5 = load ptr, ptr %3, align 8, !tbaa !277
  %6 = invoke noundef i32 @_ZNK10params_ref8get_uintEPKcRKS_j(ptr noundef nonnull align 8 dereferenceable(8) %5, ptr noundef nonnull @.str.23, ptr noundef nonnull align 8 dereferenceable(8) %4, i32 noundef -1)
          to label %_ZNK13tactic_params18solve_eqs_max_occsEv.exit unwind label %24

_ZNK13tactic_params18solve_eqs_max_occsEv.exit:   ; preds = %2
  %7 = invoke noundef i32 @_ZNK10params_ref8get_uintEPKcj(ptr noundef nonnull align 8 dereferenceable(8) %1, ptr noundef nonnull @.str.2, i32 noundef %6)
          to label %8 unwind label %24

8:                                                ; preds = %_ZNK13tactic_params18solve_eqs_max_occsEv.exit
  %9 = getelementptr inbounds nuw i8, ptr %0, i64 40
  %10 = getelementptr inbounds nuw i8, ptr %0, i64 44
  store i32 %7, ptr %10, align 4, !tbaa !93
  %11 = load ptr, ptr %3, align 8, !tbaa !277
  %12 = invoke noundef zeroext i1 @_ZNK10params_ref8get_boolEPKcRKS_b(ptr noundef nonnull align 8 dereferenceable(8) %11, ptr noundef nonnull @.str.24, ptr noundef nonnull align 8 dereferenceable(8) %4, i1 noundef zeroext true)
          to label %_ZNK13tactic_params23solve_eqs_context_solveEv.exit unwind label %24

_ZNK13tactic_params23solve_eqs_context_solveEv.exit: ; preds = %8
  %13 = invoke noundef zeroext i1 @_ZNK10params_ref8get_boolEPKcb(ptr noundef nonnull align 8 dereferenceable(8) %1, ptr noundef nonnull @.str.3, i1 noundef zeroext %12)
          to label %14 unwind label %24

14:                                               ; preds = %_ZNK13tactic_params23solve_eqs_context_solveEv.exit
  %15 = zext i1 %13 to i8
  store i8 %15, ptr %9, align 8, !tbaa !183
  %16 = getelementptr inbounds nuw i8, ptr %0, i64 64
  %17 = load ptr, ptr %16, align 8, !tbaa !3
  %18 = icmp eq ptr %17, null
  br i1 %18, label %._crit_edge, label %_ZNK17scoped_ptr_vectorIN3euf10extract_eqEE3endEv.exit

_ZNK17scoped_ptr_vectorIN3euf10extract_eqEE3endEv.exit: ; preds = %14
  %19 = getelementptr inbounds i8, ptr %17, i64 -4
  %20 = load i32, ptr %19, align 4, !tbaa !10
  %21 = zext i32 %20 to i64
  %22 = getelementptr inbounds nuw ptr, ptr %17, i64 %21
  %.not21 = icmp eq i32 %20, 0
  br i1 %.not21, label %._crit_edge, label %.lr.ph

._crit_edge:                                      ; preds = %30, %14, %_ZNK17scoped_ptr_vectorIN3euf10extract_eqEE3endEv.exit
  %23 = getelementptr inbounds nuw i8, ptr %0, i64 48
  invoke void @_ZN11th_rewriter11updt_paramsERK10params_ref(ptr noundef nonnull align 8 dereferenceable(16) %23, ptr noundef nonnull align 8 dereferenceable(8) %1)
          to label %34 unwind label %24

24:                                               ; preds = %8, %2, %._crit_edge, %_ZNK13tactic_params23solve_eqs_context_solveEv.exit, %_ZNK13tactic_params18solve_eqs_max_occsEv.exit
  %25 = landingpad { ptr, i32 }
          cleanup
  br label %35

.lr.ph:                                           ; preds = %_ZNK17scoped_ptr_vectorIN3euf10extract_eqEE3endEv.exit, %30
  %.01722 = phi ptr [ %31, %30 ], [ %17, %_ZNK17scoped_ptr_vectorIN3euf10extract_eqEE3endEv.exit ]
  %26 = load ptr, ptr %.01722, align 8, !tbaa !12
  %27 = load ptr, ptr %26, align 8, !tbaa !45
  %28 = getelementptr inbounds nuw i8, ptr %27, i64 32
  %29 = load ptr, ptr %28, align 8
  invoke void %29(ptr noundef nonnull align 8 dereferenceable(8) %26, ptr noundef nonnull align 8 dereferenceable(8) %1)
          to label %30 unwind label %32

30:                                               ; preds = %.lr.ph
  %31 = getelementptr inbounds nuw i8, ptr %.01722, i64 8
  %.not = icmp eq ptr %31, %22
  br i1 %.not, label %._crit_edge, label %.lr.ph

32:                                               ; preds = %.lr.ph
  %33 = landingpad { ptr, i32 }
          cleanup
  br label %35

34:                                               ; preds = %._crit_edge
  call void @_ZN10params_refD1Ev(ptr noundef nonnull align 8 dereferenceable(8) %4) #25
  call void @llvm.lifetime.end.p0(i64 16, ptr nonnull %3) #25
  ret void

35:                                               ; preds = %32, %24
  %.pn.pn.pn = phi { ptr, i32 } [ %25, %24 ], [ %33, %32 ]
  call void @_ZN10params_refD1Ev(ptr noundef nonnull align 8 dereferenceable(8) %4) #25
  call void @llvm.lifetime.end.p0(i64 16, ptr nonnull %3) #25
  resume { ptr, i32 } %.pn.pn.pn
}